target datalayout = "e-m:e-p270:32:32-p271:32:32-p272:64:64-i64:64-i128:128-f80:128-n8:16:32:64-S128"
target triple = "x86_64-pc-linux-gnu"

%struct.preference = type { ptr, ptr, ptr, i32, i32, i32, %union.anon, %union.anon.0, %union.anon.1, %union.anon.2, %struct.pref_custom_cbs, ptr, ptr }
%union.anon = type { ptr }
%union.anon.0 = type { ptr }
%union.anon.1 = type { ptr }
%union.anon.2 = type { %struct.anon }
%struct.anon = type { ptr, i8 }
%struct.pref_custom_cbs = type { ptr, ptr, ptr, ptr, ptr, ptr, ptr }

@.str.91 = private unnamed_addr constant [8 x i8] c"columns\00", align 1

; Function Attrs: null_pointer_is_valid sspstrong uwtable
define internal void @free_string_like_preference(ptr noundef %0) #1 {
  %2 = alloca ptr, align 8
  store ptr %0, ptr %2, align 8
  %3 = load ptr, ptr %2, align 8
  %4 = getelementptr inbounds nuw %struct.preference, ptr %3, i32 0, i32 6
  %5 = load ptr, ptr %4, align 8
  %6 = load ptr, ptr %5, align 8
  call void @g_free(ptr noundef %6)
  %7 = load ptr, ptr %2, align 8
  %8 = getelementptr inbounds nuw %struct.preference, ptr %7, i32 0, i32 6
  %9 = load ptr, ptr %8, align 8
  store ptr null, ptr %9, align 8
  %10 = load ptr, ptr %2, align 8
  %11 = getelementptr inbounds nuw %struct.preference, ptr %10, i32 0, i32 8
  %12 = load ptr, ptr %11, align 8
  call void @g_free(ptr noundef %12)
  %13 = load ptr, ptr %2, align 8
  %14 = getelementptr inbounds nuw %struct.preference, ptr %13, i32 0, i32 8
  store ptr null, ptr %14, align 8
  ret void
}

; Function Attrs: null_pointer_is_valid sspstrong uwtable
define internal void @free_pref(ptr noundef %0, ptr noundef %1) #1 {
  %3 = alloca ptr, align 8
  %4 = alloca ptr, align 8
  %5 = alloca ptr, align 8
  %6 = alloca i32, align 4
  store ptr %0, ptr %3, align 8
  store ptr %1, ptr %4, align 8
  call void @llvm.lifetime.start.p0(i64 8, ptr %5) #17
  %7 = load ptr, ptr %3, align 8
  store ptr %7, ptr %5, align 8
  call void @llvm.lifetime.start.p0(i64 4, ptr %6) #17
  %8 = load ptr, ptr %5, align 8
  %9 = getelementptr inbounds nuw %struct.preference, ptr %8, i32 0, i32 4
  %10 = load i32, ptr %9, align 4
  store i32 %10, ptr %6, align 4
  %11 = load i32, ptr %6, align 4
  %12 = and i32 %11, -1025
  store i32 %12, ptr %6, align 4
  %13 = load i32, ptr %6, align 4
  switch i32 %13, label %47 [
    i32 2, label %14
    i32 4, label %14
    i32 1, label %14
    i32 32, label %14
    i32 64, label %14
    i32 256, label %14
    i32 8, label %15
    i32 128, label %15
    i32 16384, label %15
    i32 2048, label %15
    i32 32768, label %15
    i32 131072, label %15
    i32 16, label %17
    i32 8192, label %17
    i32 512, label %32
    i32 65536, label %47
  ]

14:                                               ; preds = %2, %2, %2, %2, %2, %2
  br label %47

15:                                               ; preds = %2, %2, %2, %2, %2, %2
  %16 = load ptr, ptr %5, align 8
  call void @free_string_like_preference(ptr noundef %16)
  br label %47

17:                                               ; preds = %2, %2
  %18 = call ptr @wmem_epan_scope()
  %19 = load ptr, ptr %5, align 8
  %20 = getelementptr inbounds nuw %struct.preference, ptr %19, i32 0, i32 6
  %21 = load ptr, ptr %20, align 8
  %22 = load ptr, ptr %21, align 8
  call void @wmem_free(ptr noundef %18, ptr noundef %22)
  %23 = load ptr, ptr %5, align 8
  %24 = getelementptr inbounds nuw %struct.preference, ptr %23, i32 0, i32 6
  %25 = load ptr, ptr %24, align 8
  store ptr null, ptr %25, align 8
  %26 = call ptr @wmem_epan_scope()
  %27 = load ptr, ptr %5, align 8
  %28 = getelementptr inbounds nuw %struct.preference, ptr %27, i32 0, i32 8
  %29 = load ptr, ptr %28, align 8
  call void @wmem_free(ptr noundef %26, ptr noundef %29)
  %30 = load ptr, ptr %5, align 8
  %31 = getelementptr inbounds nuw %struct.preference, ptr %30, i32 0, i32 8
  store ptr null, ptr %31, align 8
  br label %47

32:                                               ; preds = %2
  %33 = load ptr, ptr %5, align 8
  %34 = getelementptr inbounds nuw %struct.preference, ptr %33, i32 0, i32 0
  %35 = load ptr, ptr %34, align 8
  %36 = call i32 @strcmp(ptr noundef %35, ptr noundef @.str.91) #22
  %37 = icmp eq i32 %36, 0
  br i1 %37, label %38, label %41

38:                                               ; preds = %32
  %39 = load ptr, ptr %5, align 8
  %40 = getelementptr inbounds nuw %struct.preference, ptr %39, i32 0, i32 7
  store i8 1, ptr %40, align 8
  br label %41

41:                                               ; preds = %38, %32
  %42 = load ptr, ptr %5, align 8
  %43 = getelementptr inbounds nuw %struct.preference, ptr %42, i32 0, i32 10
  %44 = getelementptr inbounds nuw %struct.pref_custom_cbs, ptr %43, i32 0, i32 0
  %45 = load ptr, ptr %44, align 8
  %46 = load ptr, ptr %5, align 8
  call void %45(ptr noundef %46)
  br label %47

47:                                               ; preds = %2, %2, %41, %17, %15, %14
  %48 = load ptr, ptr %5, align 8
  call void @g_free(ptr noundef %48)
  call void @llvm.lifetime.end.p0(i64 4, ptr %6) #17
  call void @llvm.lifetime.end.p0(i64 8, ptr %5) #17
  ret void
}