; Function Attrs: null_pointer_is_valid sspstrong uwtable
define internal void @free_pref(ptr noundef %0, ptr readnone captures(none) %1) #1 {
  %3 = getelementptr inbounds nuw i8, ptr %0, i64 28
  %4 = load i32, ptr %3, align 4
  %5 = and i32 %4, -1025
  switch i32 %5, label %31 [
    i32 512, label %22
    i32 8192, label %13
    i32 16, label %13
    i32 131072, label %6
    i32 32768, label %6
    i32 2048, label %6
    i32 8, label %6
    i32 128, label %6
    i32 16384, label %6
  ]

6:                                                ; preds = %2, %2, %2, %2, %2, %2
  %7 = getelementptr inbounds nuw i8, ptr %0, i64 40
  %8 = load ptr, ptr %7, align 8
  %9 = load ptr, ptr %8, align 8
  tail call void @g_free(ptr noundef %9)
  %10 = load ptr, ptr %7, align 8
  store ptr null, ptr %10, align 8
  %11 = getelementptr inbounds nuw i8, ptr %0, i64 56
  %12 = load ptr, ptr %11, align 8
  tail call void @g_free(ptr noundef %12)
  store ptr null, ptr %11, align 8
  br label %31

13:                                               ; preds = %2, %2
  %14 = tail call ptr @wmem_epan_scope()
  %15 = getelementptr inbounds nuw i8, ptr %0, i64 40
  %16 = load ptr, ptr %15, align 8
  %17 = load ptr, ptr %16, align 8
  tail call void @wmem_free(ptr noundef %14, ptr noundef %17)
  %18 = load ptr, ptr %15, align 8
  store ptr null, ptr %18, align 8
  %19 = tail call ptr @wmem_epan_scope()
  %20 = getelementptr inbounds nuw i8, ptr %0, i64 56
  %21 = load ptr, ptr %20, align 8
  tail call void @wmem_free(ptr noundef %19, ptr noundef %21)
  store ptr null, ptr %20, align 8
  br label %31

22:                                               ; preds = %2
  %23 = load ptr, ptr %0, align 8
  %24 = tail call i32 @strcmp(ptr noundef %23, ptr noundef nonnull dereferenceable(8) @.str.91) #29
  %25 = icmp eq i32 %24, 0
  br i1 %25, label %26, label %28

26:                                               ; preds = %22
  %27 = getelementptr inbounds nuw i8, ptr %0, i64 48
  store i8 1, ptr %27, align 8
  br label %28

28:                                               ; preds = %26, %22
  %29 = getelementptr inbounds nuw i8, ptr %0, i64 80
  %30 = load ptr, ptr %29, align 8
  tail call void %30(ptr noundef %0)
  br label %31

31:                                               ; preds = %28, %13, %6, %2
  tail call void @g_free(ptr noundef %0)
  ret void
}